target datalayout = "e-m:e-p270:32:32-p271:32:32-p272:64:64-i64:64-i128:128-f80:128-n8:16:32:64-S128"
target triple = "x86_64-pc-linux-gnu"

%class.btVector3 = type { [4 x float] }
%class.btGImpactMeshShapePart = type { %class.btGImpactShapeInterface, %"class.btGImpactMeshShapePart::TrimeshPrimitiveManager" }
%class.btGImpactShapeInterface = type { %class.btConcaveShape.base, %class.btAABB, i8, %class.btVector3, %class.btGImpactQuantizedBvh }
%class.btConcaveShape.base = type <{ %class.btCollisionShape, float }>
%class.btCollisionShape = type { ptr, i32, ptr, i32, i32 }
%class.btAABB = type { %class.btVector3, %class.btVector3 }
%class.btGImpactQuantizedBvh = type { %class.btQuantizedBvhTree, ptr }
%class.btQuantizedBvhTree = type { i32, [4 x i8], %class.GIM_QUANTIZED_BVH_NODE_ARRAY, %class.btAABB, %class.btVector3 }
%class.GIM_QUANTIZED_BVH_NODE_ARRAY = type { %class.btAlignedObjectArray.base, [7 x i8] }
%class.btAlignedObjectArray.base = type <{ [4 x i8], i32, i32, [4 x i8], ptr, i8 }>
%"class.btGImpactMeshShapePart::TrimeshPrimitiveManager" = type <{ %class.btPrimitiveManagerBase, float, [4 x i8], ptr, %class.btVector3, i32, i32, ptr, i32, i32, i32, [4 x i8], ptr, i32, i32, i32, [4 x i8] }>
%class.btPrimitiveManagerBase = type { ptr }
%class.btAlignedObjectArray.6 = type <{ [4 x i8], i32, i32, [4 x i8], ptr, i8, [7 x i8] }>
%class.btPrimitiveTriangle = type { [3 x %class.btVector3], %class.btVector4, float, float }
%class.btVector4 = type { %class.btVector3 }

; Function Attrs: inlinehint mustprogress nounwind uwtable
define linkonce_odr dso_local void @_ZN9btVector4C2Ev(ptr noundef nonnull align 4 dereferenceable(16) %0) unnamed_addr #3 comdat align 2 {
  %2 = alloca ptr, align 8
  store ptr %0, ptr %2, align 8, !tbaa !181
  %3 = load ptr, ptr %2, align 8
  call void @_ZN9btVector3C2Ev(ptr noundef nonnull align 4 dereferenceable(16) %3)
  ret void
}

; Function Attrs: inlinehint mustprogress nounwind uwtable
define linkonce_odr dso_local void @_ZN20btAlignedObjectArrayIiE4initEv(ptr noundef nonnull align 8 dereferenceable(25) %0) #3 comdat align 2 {
  %2 = alloca ptr, align 8
  store ptr %0, ptr %2, align 8, !tbaa !95
  %3 = load ptr, ptr %2, align 8
  %4 = getelementptr inbounds nuw %class.btAlignedObjectArray.6, ptr %3, i32 0, i32 5
  store i8 1, ptr %4, align 8, !tbaa !204
  %5 = getelementptr inbounds nuw %class.btAlignedObjectArray.6, ptr %3, i32 0, i32 4
  store ptr null, ptr %5, align 8, !tbaa !106
  %6 = getelementptr inbounds nuw %class.btAlignedObjectArray.6, ptr %3, i32 0, i32 1
  store i32 0, ptr %6, align 4, !tbaa !97
  %7 = getelementptr inbounds nuw %class.btAlignedObjectArray.6, ptr %3, i32 0, i32 2
  store i32 0, ptr %7, align 8, !tbaa !205
  ret void
}

; Function Attrs: mustprogress nounwind uwtable
define linkonce_odr dso_local void @_ZN18btAlignedAllocatorIiLj16EEC2Ev(ptr noundef nonnull align 1 dereferenceable(1) %0) unnamed_addr #1 comdat align 2 {
  %2 = alloca ptr, align 8
  store ptr %0, ptr %2, align 8, !tbaa !202
  ret void
}

; Function Attrs: inlinehint mustprogress nounwind uwtable
define linkonce_odr dso_local void @_ZN9btVector3C2Ev(ptr noundef nonnull align 4 dereferenceable(16) %0) unnamed_addr #3 comdat align 2 {
  %2 = alloca ptr, align 8
  store ptr %0, ptr %2, align 8, !tbaa !64
  ret void
}

; Function Attrs: inlinehint mustprogress uwtable
define linkonce_odr dso_local void @_ZNK23btGImpactShapeInterface20getPrimitiveTriangleEiR19btPrimitiveTriangle(ptr noundef nonnull align 8 dereferenceable(184) %0, i32 noundef %1, ptr noundef nonnull align 4 dereferenceable(72) %2) #6 comdat align 2 {
  %4 = alloca ptr, align 8
  %5 = alloca i32, align 4
  %6 = alloca ptr, align 8
  store ptr %0, ptr %4, align 8, !tbaa !39
  store i32 %1, ptr %5, align 4, !tbaa !9
  store ptr %2, ptr %6, align 8, !tbaa !101
  %7 = load ptr, ptr %4, align 8
  %8 = load ptr, ptr %7, align 8, !tbaa !16
  %9 = getelementptr inbounds ptr, ptr %8, i64 21
  %10 = load ptr, ptr %9, align 8
  %11 = call noundef ptr %10(ptr noundef nonnull align 8 dereferenceable(184) %7)
  %12 = load i32, ptr %5, align 4, !tbaa !9
  %13 = load ptr, ptr %6, align 8, !tbaa !101
  %14 = load ptr, ptr %11, align 8, !tbaa !16
  %15 = getelementptr inbounds ptr, ptr %14, i64 5
  %16 = load ptr, ptr %15, align 8
  call void %16(ptr noundef nonnull align 8 dereferenceable(8) %11, i32 noundef %12, ptr noundef nonnull align 4 dereferenceable(72) %13)
  ret void
}

; Function Attrs: inlinehint mustprogress nounwind uwtable
define linkonce_odr dso_local noundef nonnull align 4 dereferenceable(4) ptr @_ZN20btAlignedObjectArrayIiEixEi(ptr noundef nonnull align 8 dereferenceable(25) %0, i32 noundef %1) #3 comdat align 2 {
  %3 = alloca ptr, align 8
  %4 = alloca i32, align 4
  store ptr %0, ptr %3, align 8, !tbaa !95
  store i32 %1, ptr %4, align 4, !tbaa !9
  %5 = load ptr, ptr %3, align 8
  %6 = getelementptr inbounds nuw %class.btAlignedObjectArray.6, ptr %5, i32 0, i32 4
  %7 = load ptr, ptr %6, align 8, !tbaa !106
  %8 = load i32, ptr %4, align 4, !tbaa !9
  %9 = sext i32 %8 to i64
  %10 = getelementptr inbounds i32, ptr %7, i64 %9
  ret ptr %10
}

; Function Attrs: mustprogress uwtable
define linkonce_odr dso_local void @_ZN19btPrimitiveTriangleC2Ev(ptr noundef nonnull align 4 dereferenceable(72) %0) unnamed_addr #2 comdat align 2 {
  %2 = alloca ptr, align 8
  store ptr %0, ptr %2, align 8, !tbaa !101
  %3 = load ptr, ptr %2, align 8
  %4 = getelementptr inbounds nuw %class.btPrimitiveTriangle, ptr %3, i32 0, i32 0
  %5 = getelementptr inbounds [3 x %class.btVector3], ptr %4, i32 0, i32 0
  %6 = getelementptr inbounds %class.btVector3, ptr %5, i64 3
  br label %7

7:                                                ; preds = %7, %1
  %8 = phi ptr [ %5, %1 ], [ %9, %7 ]
  call void @_ZN9btVector3C2Ev(ptr noundef nonnull align 4 dereferenceable(16) %8)
  %9 = getelementptr inbounds %class.btVector3, ptr %8, i64 1
  %10 = icmp eq ptr %9, %6
  br i1 %10, label %11, label %7

11:                                               ; preds = %7
  %12 = getelementptr inbounds nuw %class.btPrimitiveTriangle, ptr %3, i32 0, i32 1
  call void @_ZN9btVector4C2Ev(ptr noundef nonnull align 4 dereferenceable(16) %12)
  %13 = getelementptr inbounds nuw %class.btPrimitiveTriangle, ptr %3, i32 0, i32 2
  store float 0x3F847AE140000000, ptr %13, align 4, !tbaa !103
  ret void
}

; Function Attrs: inlinehint mustprogress nounwind uwtable
define linkonce_odr dso_local noundef i32 @_ZNK22btGImpactMeshShapePart7getPartEv(ptr noundef nonnull align 8 dereferenceable(280) %0) #3 comdat align 2 {
  %2 = alloca ptr, align 8
  store ptr %0, ptr %2, align 8, !tbaa !12
  %3 = load ptr, ptr %2, align 8
  %4 = getelementptr inbounds nuw %class.btGImpactMeshShapePart, ptr %3, i32 0, i32 1
  %5 = getelementptr inbounds nuw %"class.btGImpactMeshShapePart::TrimeshPrimitiveManager", ptr %4, i32 0, i32 5
  %6 = load i32, ptr %5, align 8, !tbaa !38
  ret i32 %6
}

; Function Attrs: inlinehint mustprogress nounwind uwtable
define linkonce_odr dso_local noundef i32 @_ZNK20btAlignedObjectArrayIiE4sizeEv(ptr noundef nonnull align 8 dereferenceable(25) %0) #3 comdat align 2 {
  %2 = alloca ptr, align 8
  store ptr %0, ptr %2, align 8, !tbaa !95
  %3 = load ptr, ptr %2, align 8
  %4 = getelementptr inbounds nuw %class.btAlignedObjectArray.6, ptr %3, i32 0, i32 1
  %5 = load i32, ptr %4, align 4, !tbaa !97
  ret i32 %5
}

; Function Attrs: mustprogress uwtable
define linkonce_odr dso_local void @_ZN20btAlignedObjectArrayIiEC2Ev(ptr noundef nonnull align 8 dereferenceable(25) %0) unnamed_addr #2 comdat align 2 {
  %2 = alloca ptr, align 8
  store ptr %0, ptr %2, align 8, !tbaa !95
  %3 = load ptr, ptr %2, align 8
  call void @_ZN18btAlignedAllocatorIiLj16EEC2Ev(ptr noundef nonnull align 1 dereferenceable(1) %3)
  call void @_ZN20btAlignedObjectArrayIiE4initEv(ptr noundef nonnull align 8 dereferenceable(25) %3)
  ret void
}

; Function Attrs: mustprogress uwtable
define linkonce_odr dso_local void @_ZN6btAABBC2Ev(ptr noundef nonnull align 4 dereferenceable(32) %0) unnamed_addr #2 comdat align 2 {
  %2 = alloca ptr, align 8
  store ptr %0, ptr %2, align 8, !tbaa !108
  %3 = load ptr, ptr %2, align 8
  %4 = getelementptr inbounds nuw %class.btAABB, ptr %3, i32 0, i32 0
  call void @_ZN9btVector3C2Ev(ptr noundef nonnull align 4 dereferenceable(16) %4)
  %5 = getelementptr inbounds nuw %class.btAABB, ptr %3, i32 0, i32 1
  call void @_ZN9btVector3C2Ev(ptr noundef nonnull align 4 dereferenceable(16) %5)
  ret void
}

; Function Attrs: mustprogress uwtable
define dso_local void @_ZNK22btGImpactMeshShapePart19processAllTrianglesEP18btTriangleCallbackRK9btVector3S4_(ptr noundef nonnull align 8 dereferenceable(280) %0, ptr noundef %1, ptr noundef nonnull align 4 dereferenceable(16) %2, ptr noundef nonnull align 4 dereferenceable(16) %3) unnamed_addr #2 align 2 personality ptr @__gxx_personality_v0 {
  %5 = alloca ptr, align 8
  %6 = alloca ptr, align 8
  %7 = alloca ptr, align 8
  %8 = alloca ptr, align 8
  %9 = alloca %class.btAABB, align 4
  %10 = alloca %class.btAlignedObjectArray.6, align 8
  %11 = alloca ptr, align 8
  %12 = alloca i32, align 4
  %13 = alloca i32, align 4
  %14 = alloca i32, align 4
  %15 = alloca %class.btPrimitiveTriangle, align 4
  %16 = alloca i32, align 4
  store ptr %0, ptr %5, align 8, !tbaa !12
  store ptr %1, ptr %6, align 8, !tbaa !92
  store ptr %2, ptr %7, align 8, !tbaa !64
  store ptr %3, ptr %8, align 8, !tbaa !64
  %17 = load ptr, ptr %5, align 8
  %18 = load ptr, ptr %17, align 8, !tbaa !16
  %19 = getelementptr inbounds ptr, ptr %18, i64 28
  %20 = load ptr, ptr %19, align 8
  call void %20(ptr noundef nonnull align 8 dereferenceable(280) %17)
  call void @llvm.lifetime.start.p0(i64 32, ptr %9) #14
  call void @_ZN6btAABBC2Ev(ptr noundef nonnull align 4 dereferenceable(32) %9)
  %21 = load ptr, ptr %7, align 8, !tbaa !64
  %22 = getelementptr inbounds nuw %class.btAABB, ptr %9, i32 0, i32 0
  call void @llvm.memcpy.p0.p0.i64(ptr align 4 %22, ptr align 4 %21, i64 16, i1 false), !tbaa.struct !49
  %23 = load ptr, ptr %8, align 8, !tbaa !64
  %24 = getelementptr inbounds nuw %class.btAABB, ptr %9, i32 0, i32 1
  call void @llvm.memcpy.p0.p0.i64(ptr align 4 %24, ptr align 4 %23, i64 16, i1 false), !tbaa.struct !49
  call void @llvm.lifetime.start.p0(i64 32, ptr %10) #14
  call void @_ZN20btAlignedObjectArrayIiEC2Ev(ptr noundef nonnull align 8 dereferenceable(25) %10)
  %25 = getelementptr inbounds nuw %class.btGImpactShapeInterface, ptr %17, i32 0, i32 4
  %26 = invoke noundef zeroext i1 @_ZNK21btGImpactQuantizedBvh8boxQueryERK6btAABBR20btAlignedObjectArrayIiE(ptr noundef nonnull align 8 dereferenceable(96) %25, ptr noundef nonnull align 4 dereferenceable(32) %9, ptr noundef nonnull align 8 dereferenceable(25) %10)
          to label %27 unwind label %36

27:                                               ; preds = %4
  %28 = invoke noundef i32 @_ZNK20btAlignedObjectArrayIiE4sizeEv(ptr noundef nonnull align 8 dereferenceable(25) %10)
          to label %29 unwind label %36

29:                                               ; preds = %27
  %30 = icmp eq i32 %28, 0
  br i1 %30, label %31, label %40

31:                                               ; preds = %29
  %32 = load ptr, ptr %17, align 8, !tbaa !16
  %33 = getelementptr inbounds ptr, ptr %32, i64 29
  %34 = load ptr, ptr %33, align 8
  invoke void %34(ptr noundef nonnull align 8 dereferenceable(280) %17)
          to label %35 unwind label %36

35:                                               ; preds = %31
  store i32 1, ptr %13, align 4
  br label %85

36:                                               ; preds = %31, %27, %4
  %37 = landingpad { ptr, i32 }
          cleanup
  %38 = extractvalue { ptr, i32 } %37, 0
  store ptr %38, ptr %11, align 8
  %39 = extractvalue { ptr, i32 } %37, 1
  store i32 %39, ptr %12, align 4
  br label %90

40:                                               ; preds = %29
  call void @llvm.lifetime.start.p0(i64 4, ptr %14) #14
  %41 = invoke noundef i32 @_ZNK22btGImpactMeshShapePart7getPartEv(ptr noundef nonnull align 8 dereferenceable(280) %17)
          to label %42 unwind label %68

42:                                               ; preds = %40
  store i32 %41, ptr %14, align 4, !tbaa !9
  call void @llvm.lifetime.start.p0(i64 72, ptr %15) #14
  invoke void @_ZN19btPrimitiveTriangleC2Ev(ptr noundef nonnull align 4 dereferenceable(72) %15)
          to label %43 unwind label %72

43:                                               ; preds = %42
  call void @llvm.lifetime.start.p0(i64 4, ptr %16) #14
  %44 = invoke noundef i32 @_ZNK20btAlignedObjectArrayIiE4sizeEv(ptr noundef nonnull align 8 dereferenceable(25) %10)
          to label %45 unwind label %76

45:                                               ; preds = %43
  store i32 %44, ptr %16, align 4, !tbaa !9
  br label %46

46:                                               ; preds = %67, %45
  %47 = load i32, ptr %16, align 4, !tbaa !9
  %48 = add nsw i32 %47, -1
  store i32 %48, ptr %16, align 4, !tbaa !9
  %49 = icmp ne i32 %47, 0
  br i1 %49, label %50, label %80

50:                                               ; preds = %46
  %51 = load i32, ptr %16, align 4, !tbaa !9
  %52 = invoke noundef nonnull align 4 dereferenceable(4) ptr @_ZN20btAlignedObjectArrayIiEixEi(ptr noundef nonnull align 8 dereferenceable(25) %10, i32 noundef %51)
          to label %53 unwind label %76

53:                                               ; preds = %50
  %54 = load i32, ptr %52, align 4, !tbaa !9
  invoke void @_ZNK23btGImpactShapeInterface20getPrimitiveTriangleEiR19btPrimitiveTriangle(ptr noundef nonnull align 8 dereferenceable(184) %17, i32 noundef %54, ptr noundef nonnull align 4 dereferenceable(72) %15)
          to label %55 unwind label %76

55:                                               ; preds = %53
  %56 = load ptr, ptr %6, align 8, !tbaa !92
  %57 = getelementptr inbounds nuw %class.btPrimitiveTriangle, ptr %15, i32 0, i32 0
  %58 = getelementptr inbounds [3 x %class.btVector3], ptr %57, i64 0, i64 0
  %59 = load i32, ptr %14, align 4, !tbaa !9
  %60 = load i32, ptr %16, align 4, !tbaa !9
  %61 = invoke noundef nonnull align 4 dereferenceable(4) ptr @_ZN20btAlignedObjectArrayIiEixEi(ptr noundef nonnull align 8 dereferenceable(25) %10, i32 noundef %60)
          to label %62 unwind label %76

62:                                               ; preds = %55
  %63 = load i32, ptr %61, align 4, !tbaa !9
  %64 = load ptr, ptr %56, align 8, !tbaa !16
  %65 = getelementptr inbounds ptr, ptr %64, i64 2
  %66 = load ptr, ptr %65, align 8
  invoke void %66(ptr noundef nonnull align 8 dereferenceable(8) %56, ptr noundef %58, i32 noundef %59, i32 noundef %63)
          to label %67 unwind label %76

67:                                               ; preds = %62
  br label %46, !llvm.loop !107

68:                                               ; preds = %40
  %69 = landingpad { ptr, i32 }
          cleanup
  %70 = extractvalue { ptr, i32 } %69, 0
  store ptr %70, ptr %11, align 8
  %71 = extractvalue { ptr, i32 } %69, 1
  store i32 %71, ptr %12, align 4
  br label %89

72:                                               ; preds = %42
  %73 = landingpad { ptr, i32 }
          cleanup
  %74 = extractvalue { ptr, i32 } %73, 0
  store ptr %74, ptr %11, align 8
  %75 = extractvalue { ptr, i32 } %73, 1
  store i32 %75, ptr %12, align 4
  br label %88

76:                                               ; preds = %80, %62, %55, %53, %50, %43
  %77 = landingpad { ptr, i32 }
          cleanup
  %78 = extractvalue { ptr, i32 } %77, 0
  store ptr %78, ptr %11, align 8
  %79 = extractvalue { ptr, i32 } %77, 1
  store i32 %79, ptr %12, align 4
  call void @llvm.lifetime.end.p0(i64 4, ptr %16) #14
  br label %88

80:                                               ; preds = %46
  %81 = load ptr, ptr %17, align 8, !tbaa !16
  %82 = getelementptr inbounds ptr, ptr %81, i64 29
  %83 = load ptr, ptr %82, align 8
  invoke void %83(ptr noundef nonnull align 8 dereferenceable(280) %17)
          to label %84 unwind label %76

84:                                               ; preds = %80
  call void @llvm.lifetime.end.p0(i64 4, ptr %16) #14
  call void @llvm.lifetime.end.p0(i64 72, ptr %15) #14
  call void @llvm.lifetime.end.p0(i64 4, ptr %14) #14
  store i32 0, ptr %13, align 4
  br label %85

85:                                               ; preds = %84, %35
  call void @_ZN20btAlignedObjectArrayIiED2Ev(ptr noundef nonnull align 8 dereferenceable(25) %10) #14
  call void @llvm.lifetime.end.p0(i64 32, ptr %10) #14
  call void @llvm.lifetime.end.p0(i64 32, ptr %9) #14
  %86 = load i32, ptr %13, align 4
  switch i32 %86, label %96 [
    i32 0, label %87
    i32 1, label %87
  ]

87:                                               ; preds = %85, %85
  ret void

88:                                               ; preds = %76, %72
  call void @llvm.lifetime.end.p0(i64 72, ptr %15) #14
  br label %89

89:                                               ; preds = %88, %68
  call void @llvm.lifetime.end.p0(i64 4, ptr %14) #14
  br label %90

90:                                               ; preds = %89, %36
  call void @_ZN20btAlignedObjectArrayIiED2Ev(ptr noundef nonnull align 8 dereferenceable(25) %10) #14
  call void @llvm.lifetime.end.p0(i64 32, ptr %10) #14
  call void @llvm.lifetime.end.p0(i64 32, ptr %9) #14
  br label %91

91:                                               ; preds = %90
  %92 = load ptr, ptr %11, align 8
  %93 = load i32, ptr %12, align 4
  %94 = insertvalue { ptr, i32 } poison, ptr %92, 0
  %95 = insertvalue { ptr, i32 } %94, i32 %93, 1
  resume { ptr, i32 } %95

96:                                               ; preds = %85
  unreachable
}