; Function Attrs: mustprogress uwtable
define dso_local void @_ZNK22btGImpactMeshShapePart19processAllTrianglesEP18btTriangleCallbackRK9btVector3S4_(ptr noundef nonnull align 8 dereferenceable(280) %0, ptr noundef %1, ptr noundef nonnull readonly align 4 captures(none) dereferenceable(16) %2, ptr noundef nonnull readonly align 4 captures(none) dereferenceable(16) %3) unnamed_addr #0 align 2 personality ptr @__gxx_personality_v0 {
  %5 = alloca %class.btAABB, align 4
  %6 = alloca %class.btAlignedObjectArray.6, align 8
  %7 = alloca %class.btPrimitiveTriangle, align 4
  %8 = load ptr, ptr %0, align 8, !tbaa !30
  %9 = getelementptr inbounds nuw i8, ptr %8, i64 224
  %10 = load ptr, ptr %9, align 8
  tail call void %10(ptr noundef nonnull align 8 dereferenceable(280) %0)
  call void @llvm.lifetime.start.p0(i64 32, ptr nonnull %5) #20
  call void @llvm.memcpy.p0.p0.i64(ptr noundef nonnull align 4 dereferenceable(16) %5, ptr noundef nonnull align 4 dereferenceable(16) %2, i64 16, i1 false), !tbaa.struct !64
  %11 = getelementptr inbounds nuw i8, ptr %5, i64 16
  call void @llvm.memcpy.p0.p0.i64(ptr noundef nonnull align 4 dereferenceable(16) %11, ptr noundef nonnull align 4 dereferenceable(16) %3, i64 16, i1 false), !tbaa.struct !64
  call void @llvm.lifetime.start.p0(i64 32, ptr nonnull %6) #20
  %12 = getelementptr inbounds nuw i8, ptr %6, i64 24
  store i8 1, ptr %12, align 8, !tbaa !83
  %13 = getelementptr inbounds nuw i8, ptr %6, i64 16
  store ptr null, ptr %13, align 8, !tbaa !87
  %14 = getelementptr inbounds nuw i8, ptr %6, i64 4
  store i32 0, ptr %14, align 4, !tbaa !88
  %15 = getelementptr inbounds nuw i8, ptr %6, i64 8
  store i32 0, ptr %15, align 8, !tbaa !89
  %16 = getelementptr inbounds nuw i8, ptr %0, i64 88
  %17 = invoke noundef zeroext i1 @_ZNK21btGImpactQuantizedBvh8boxQueryERK6btAABBR20btAlignedObjectArrayIiE(ptr noundef nonnull align 8 dereferenceable(96) %16, ptr noundef nonnull align 4 dereferenceable(32) %5, ptr noundef nonnull align 8 dereferenceable(25) %6)
          to label %18 unwind label %25

18:                                               ; preds = %4
  %19 = load i32, ptr %14, align 4, !tbaa !88
  %20 = icmp eq i32 %19, 0
  br i1 %20, label %21, label %27

21:                                               ; preds = %18
  %22 = load ptr, ptr %0, align 8, !tbaa !30
  %23 = getelementptr inbounds nuw i8, ptr %22, i64 232
  %24 = load ptr, ptr %23, align 8
  invoke void %24(ptr noundef nonnull align 8 dereferenceable(280) %0)
          to label %57 unwind label %25

25:                                               ; preds = %21, %4
  %26 = landingpad { ptr, i32 }
          cleanup
  br label %66

27:                                               ; preds = %18
  %28 = getelementptr inbounds nuw i8, ptr %0, i64 224
  %29 = load i32, ptr %28, align 8, !tbaa !42
  call void @llvm.lifetime.start.p0(i64 72, ptr nonnull %7) #20
  %30 = getelementptr inbounds nuw i8, ptr %7, i64 64
  store float 0x3F847AE140000000, ptr %30, align 4, !tbaa !90
  %31 = sext i32 %19 to i64
  br label %32

32:                                               ; preds = %_ZNK23btGImpactShapeInterface20getPrimitiveTriangleEiR19btPrimitiveTriangle.exit, %27
  %indvars.iv = phi i64 [ %indvars.iv.next, %_ZNK23btGImpactShapeInterface20getPrimitiveTriangleEiR19btPrimitiveTriangle.exit ], [ %31, %27 ]
  %indvars.iv.next = add nsw i64 %indvars.iv, -1
  %33 = icmp eq i64 %indvars.iv, 0
  br i1 %33, label %52, label %34

34:                                               ; preds = %32
  %35 = load ptr, ptr %13, align 8, !tbaa !87
  %36 = getelementptr inbounds i32, ptr %35, i64 %indvars.iv.next
  %37 = load i32, ptr %36, align 4, !tbaa !93
  %38 = load ptr, ptr %0, align 8, !tbaa !30
  %39 = getelementptr inbounds nuw i8, ptr %38, i64 168
  %40 = load ptr, ptr %39, align 8
  %41 = invoke noundef ptr %40(ptr noundef nonnull align 8 dereferenceable(184) %0)
          to label %.noexc unwind label %.loopexit

.noexc:                                           ; preds = %34
  %42 = load ptr, ptr %41, align 8, !tbaa !30
  %43 = getelementptr inbounds nuw i8, ptr %42, i64 40
  %44 = load ptr, ptr %43, align 8
  invoke void %44(ptr noundef nonnull align 8 dereferenceable(8) %41, i32 noundef %37, ptr noundef nonnull align 4 dereferenceable(72) %7)
          to label %_ZNK23btGImpactShapeInterface20getPrimitiveTriangleEiR19btPrimitiveTriangle.exit unwind label %.loopexit

_ZNK23btGImpactShapeInterface20getPrimitiveTriangleEiR19btPrimitiveTriangle.exit: ; preds = %.noexc
  %45 = load ptr, ptr %13, align 8, !tbaa !87
  %46 = getelementptr inbounds i32, ptr %45, i64 %indvars.iv.next
  %47 = load i32, ptr %46, align 4, !tbaa !93
  %48 = load ptr, ptr %1, align 8, !tbaa !30
  %49 = getelementptr inbounds nuw i8, ptr %48, i64 16
  %50 = load ptr, ptr %49, align 8
  invoke void %50(ptr noundef nonnull align 8 dereferenceable(8) %1, ptr noundef nonnull %7, i32 noundef %29, i32 noundef %47)
          to label %32 unwind label %.loopexit, !llvm.loop !95

.loopexit:                                        ; preds = %_ZNK23btGImpactShapeInterface20getPrimitiveTriangleEiR19btPrimitiveTriangle.exit, %34, %.noexc
  %lpad.loopexit = landingpad { ptr, i32 }
          cleanup
  br label %51

.loopexit.split-lp:                               ; preds = %52
  %lpad.loopexit.split-lp = landingpad { ptr, i32 }
          cleanup
  br label %51

51:                                               ; preds = %.loopexit.split-lp, %.loopexit
  %lpad.phi = phi { ptr, i32 } [ %lpad.loopexit, %.loopexit ], [ %lpad.loopexit.split-lp, %.loopexit.split-lp ]
  call void @llvm.lifetime.end.p0(i64 72, ptr nonnull %7) #20
  br label %66

52:                                               ; preds = %32
  %53 = load ptr, ptr %0, align 8, !tbaa !30
  %54 = getelementptr inbounds nuw i8, ptr %53, i64 232
  %55 = load ptr, ptr %54, align 8
  invoke void %55(ptr noundef nonnull align 8 dereferenceable(280) %0)
          to label %56 unwind label %.loopexit.split-lp

56:                                               ; preds = %52
  call void @llvm.lifetime.end.p0(i64 72, ptr nonnull %7) #20
  br label %57

57:                                               ; preds = %21, %56
  %58 = load ptr, ptr %13, align 8, !tbaa !87
  %.not.i.i.i = icmp eq ptr %58, null
  br i1 %.not.i.i.i, label %_ZN20btAlignedObjectArrayIiED2Ev.exit, label %59

59:                                               ; preds = %57
  %60 = load i8, ptr %12, align 8, !tbaa !83, !range !44, !noundef !45
  %61 = trunc nuw i8 %60 to i1
  br i1 %61, label %62, label %_ZN20btAlignedObjectArrayIiED2Ev.exit

62:                                               ; preds = %59
  invoke void @_Z21btAlignedFreeInternalPv(ptr noundef nonnull %58)
          to label %_ZN20btAlignedObjectArrayIiED2Ev.exit unwind label %63

63:                                               ; preds = %62
  %64 = landingpad { ptr, i32 }
          catch ptr null
  %65 = extractvalue { ptr, i32 } %64, 0
  call void @__clang_call_terminate(ptr %65) #19
  unreachable

_ZN20btAlignedObjectArrayIiED2Ev.exit:            ; preds = %57, %59, %62
  call void @llvm.lifetime.end.p0(i64 32, ptr nonnull %6) #20
  call void @llvm.lifetime.end.p0(i64 32, ptr nonnull %5) #20
  ret void

66:                                               ; preds = %51, %25
  %.pn13 = phi { ptr, i32 } [ %26, %25 ], [ %lpad.phi, %51 ]
  call void @_ZN20btAlignedObjectArrayIiED2Ev(ptr noundef nonnull align 8 dereferenceable(25) %6) #20
  call void @llvm.lifetime.end.p0(i64 32, ptr nonnull %6) #20
  call void @llvm.lifetime.end.p0(i64 32, ptr nonnull %5) #20
  resume { ptr, i32 } %.pn13
}